(dp0
S'edge_ids'
p1
(lp2
(I141
I237
tp3
a(I237
I486
tp4
a(I486
I141
tp5
a(I2
I365
tp6
a(I2
I487
tp7
a(I487
I365
tp8
a(I365
I112
tp9
a(I364
I112
tp10
a(I112
I214
tp11
a(I214
I364
tp12
a(I365
I214
tp13
a(I364
I158
tp14
a(I214
I36
tp15
a(I36
I219
tp16
a(I219
I214
tp17
a(I214
I158
tp18
a(I158
I219
tp19
a(I219
I363
tp20
a(I363
I158
tp21
a(I219
I491
tp22
a(I491
I363
tp23
a(I363
I10
tp24
a(I10
I223
tp25
a(I223
I361
tp26
a(I361
I10
tp27
a(I10
I491
tp28
a(I491
I223
tp29
a(I362
I361
tp30
a(I223
I362
tp31
a(I491
I116
tp32
a(I116
I223
tp33
a(I2
I366
tp34
a(I366
I487
tp35
a(I164
I141
tp36
a(I366
I93
tp37
a(I93
I2
tp38
a(I178
I366
tp39
a(I366
I215
tp40
a(I215
I487
tp41
a(I96
I215
tp42
a(I215
I368
tp43
a(I368
I96
tp44
a(I96
I487
tp45
a(I215
I367
tp46
a(I367
I368
tp47
a(I178
I215
tp48
a(I214
I487
tp49
a(I487
I36
tp50
a(I180
I178
tp51
a(I180
I367
tp52
a(I215
I180
tp53
a(I367
I157
tp54
a(I180
I157
tp55
a(I491
I369
tp56
a(I369
I116
tp57
a(I370
I116
tp58
a(I369
I219
tp59
a(I36
I369
tp60
a(I118
I98
tp61
a(I98
I370
tp62
a(I118
I223
tp63
a(I223
I98
tp64
a(I223
I370
tp65
a(I36
I96
tp66
a(I121
I371
tp67
a(I121
I229
tp68
a(I229
I371
tp69
a(I118
I371
tp70
a(I229
I118
tp71
a(I373
I190
tp72
a(I118
I362
tp73
a(I190
I497
tp74
a(I497
I121
tp75
a(I121
I190
tp76
a(I362
I228
tp77
a(I362
I360
tp78
a(I360
I228
tp79
a(I40
I42
tp80
a(I182
I216
tp81
a(I216
I488
tp82
a(I488
I182
tp83
a(I218
I463
tp84
a(I463
I489
tp85
a(I489
I218
tp86
a(I216
I379
tp87
a(I379
I488
tp88
a(I11
I229
tp89
a(I229
I40
tp90
a(I40
I11
tp91
a(I229
I42
tp92
a(I228
I11
tp93
a(I42
I235
tp94
a(I235
I395
tp95
a(I395
I42
tp96
a(I71
I395
tp97
a(I235
I71
tp98
a(I71
I103
tp99
a(I11
I360
tp100
a(I360
I229
tp101
a(I497
I229
tp102
a(I229
I362
tp103
a(I235
I243
tp104
a(I243
I103
tp105
a(I103
I235
tp106
a(I104
I394
tp107
a(I243
I104
tp108
a(I104
I103
tp109
a(I243
I394
tp110
a(I235
I236
tp111
a(I236
I243
tp112
a(I229
I235
tp113
a(I394
I393
tp114
a(I144
I393
tp115
a(I393
I253
tp116
a(I253
I144
tp117
a(I243
I393
tp118
a(I165
I392
tp119
a(I253
I165
tp120
a(I165
I144
tp121
a(I243
I244
tp122
a(I244
I393
tp123
a(I392
I391
tp124
a(I79
I81
tp125
a(I392
I253
tp126
a(I253
I391
tp127
a(I81
I390
tp128
a(I281
I390
tp129
a(I81
I281
tp130
a(I79
I267
tp131
a(I267
I81
tp132
a(I391
I79
tp133
a(I391
I267
tp134
a(I390
I51
tp135
a(I235
I497
tp136
a(I497
I236
tp137
a(I34
I378
tp138
a(I378
I115
tp139
a(I115
I376
tp140
a(I115
I220
tp141
a(I220
I376
tp142
a(I376
I377
tp143
a(I378
I220
tp144
a(I379
I34
tp145
a(I0
I488
tp146
a(I488
I92
tp147
a(I92
I0
tp148
a(I216
I34
tp149
a(I117
I97
tp150
a(I97
I492
tp151
a(I492
I117
tp152
a(I216
I184
tp153
a(I184
I220
tp154
a(I220
I216
tp155
a(I492
I220
tp156
a(I220
I482
tp157
a(I482
I492
tp158
a(I378
I216
tp159
a(I92
I379
tp160
a(I492
I376
tp161
a(I377
I161
tp162
a(I377
I224
tp163
a(I224
I161
tp164
a(I161
I375
tp165
a(I375
I224
tp166
a(I224
I494
tp167
a(I494
I375
tp168
a(I375
I66
tp169
a(I494
I230
tp170
a(I230
I374
tp171
a(I374
I494
tp172
a(I376
I493
tp173
a(I493
I377
tp174
a(I66
I38
tp175
a(I481
I480
tp176
a(I99
I493
tp177
a(I493
I481
tp178
a(I481
I99
tp179
a(I493
I119
tp180
a(I119
I479
tp181
a(I479
I493
tp182
a(I479
I494
tp183
a(I494
I493
tp184
a(I493
I480
tp185
a(I492
I493
tp186
a(I479
I231
tp187
a(I231
I494
tp188
a(I480
I97
tp189
a(I0
I137
tp190
a(I137
I485
tp191
a(I485
I0
tp192
a(I137
I213
tp193
a(I213
I485
tp194
a(I217
I488
tp195
a(I0
I217
tp196
a(I485
I217
tp197
a(I217
I61
tp198
a(I61
I179
tp199
a(I179
I217
tp200
a(I483
I488
tp201
a(I217
I483
tp202
a(I213
I1
tp203
a(I1
I485
tp204
a(I213
I61
tp205
a(I61
I1
tp206
a(I485
I61
tp207
a(I484
I179
tp208
a(I484
I217
tp209
a(I35
I484
tp210
a(I35
I217
tp211
a(I6
I182
tp212
a(I182
I483
tp213
a(I216
I6
tp214
a(I6
I184
tp215
a(I482
I117
tp216
a(I184
I482
tp217
a(I483
I3
tp218
a(I217
I3
tp219
a(I3
I35
tp220
a(I101
I479
tp221
a(I38
I374
tp222
a(I38
I494
tp223
a(I372
I102
tp224
a(I102
I236
tp225
a(I236
I372
tp226
a(I102
I486
tp227
a(I486
I236
tp228
a(I497
I372
tp229
a(I374
I140
tp230
a(I372
I373
tp231
a(I140
I230
tp232
a(I230
I498
tp233
a(I498
I140
tp234
a(I231
I230
tp235
a(I231
I238
tp236
a(I238
I498
tp237
a(I498
I231
tp238
a(I164
I237
tp239
a(I164
I498
tp240
a(I498
I237
tp241
a(I237
I236
tp242
a(I238
I237
tp243
a(I140
I164
tp244
a(I66
I494
tp245
a(I237
I245
tp246
a(I245
I236
tp247
a(I244
I245
tp248
a(I245
I253
tp249
a(I253
I244
tp250
a(I244
I236
tp251
a(I245
I254
tp252
a(I254
I253
tp253
a(I281
I267
tp254
a(I267
I268
tp255
a(I268
I281
tp256
a(I254
I267
tp257
a(I267
I253
tp258
a(I254
I268
tp259
a(I245
I246
tp260
a(I246
I254
tp261
a(I255
I254
tp262
a(I246
I255
tp263
a(I246
I238
tp264
a(I238
I477
tp265
a(I477
I246
tp266
a(I246
I247
tp267
a(I247
I255
tp268
a(I255
I268
tp269
a(I268
I269
tp270
a(I269
I282
tp271
a(I282
I268
tp272
a(I255
I269
tp273
a(I269
I283
tp274
a(I283
I282
tp275
a(I282
I281
tp276
a(I255
I256
tp277
a(I256
I269
tp278
a(I245
I238
tp279
a(I282
I297
tp280
a(I297
I281
tp281
a(I231
I192
tp282
a(I192
I238
tp283
a(I478
I122
tp284
a(I192
I478
tp285
a(I231
I478
tp286
a(I231
I122
tp287
a(I12
I192
tp288
a(I477
I12
tp289
a(I476
I246
tp290
a(I477
I476
tp291
a(I238
I12
tp292
a(I122
I101
tp293
a(I43
I476
tp294
a(I476
I72
tp295
a(I72
I43
tp296
a(I43
I247
tp297
a(I247
I476
tp298
a(I256
I247
tp299
a(I247
I198
tp300
a(I198
I256
tp301
a(I270
I256
tp302
a(I256
I257
tp303
a(I257
I270
tp304
a(I270
I269
tp305
a(I283
I270
tp306
a(I270
I284
tp307
a(I284
I283
tp308
a(I271
I284
tp309
a(I270
I271
tp310
a(I284
I299
tp311
a(I299
I283
tp312
a(I72
I475
tp313
a(I475
I247
tp314
a(I247
I72
tp315
a(I198
I475
tp316
a(I18
I198
tp317
a(I18
I256
tp318
a(I257
I271
tp319
a(I474
I257
tp320
a(I257
I18
tp321
a(I18
I474
tp322
a(I271
I285
tp323
a(I285
I284
tp324
a(I271
I272
tp325
a(I272
I285
tp326
a(I257
I258
tp327
a(I258
I271
tp328
a(I285
I300
tp329
a(I300
I284
tp330
a(I231
I101
tp331
a(I283
I298
tp332
a(I298
I282
tp333
a(I281
I51
tp334
a(I465
I490
tp335
a(I490
I221
tp336
a(I221
I465
tp337
a(I24
I203
tp338
a(I24
I384
tp339
a(I384
I203
tp340
a(I203
I382
tp341
a(I160
I490
tp342
a(I490
I185
tp343
a(I185
I160
tp344
a(I149
I127
tp345
a(I347
I384
tp346
a(I384
I383
tp347
a(I383
I347
tp348
a(I127
I383
tp349
a(I347
I346
tp350
a(I346
I384
tp351
a(I346
I203
tp352
a(I127
I328
tp353
a(I328
I383
tp354
a(I382
I28
tp355
a(I210
I28
tp356
a(I28
I346
tp357
a(I346
I210
tp358
a(I210
I381
tp359
a(I348
I381
tp360
a(I210
I348
tp361
a(I381
I29
tp362
a(I382
I346
tp363
a(I183
I5
tp364
a(I346
I154
tp365
a(I154
I134
tp366
a(I134
I346
tp367
a(I347
I154
tp368
a(I410
I134
tp369
a(I410
I346
tp370
a(I348
I410
tp371
a(I410
I89
tp372
a(I89
I348
tp373
a(I348
I346
tp374
a(I348
I29
tp375
a(I89
I90
tp376
a(I90
I348
tp377
a(I149
I328
tp378
a(I23
I169
tp379
a(I169
I385
tp380
a(I328
I386
tp381
a(I386
I329
tp382
a(I329
I328
tp383
a(I385
I386
tp384
a(I385
I329
tp385
a(I149
I386
tp386
a(I23
I385
tp387
a(I168
I148
tp388
a(I167
I168
tp389
a(I168
I311
tp390
a(I311
I148
tp391
a(I148
I387
tp392
a(I23
I387
tp393
a(I387
I311
tp394
a(I311
I23
tp395
a(I311
I385
tp396
a(I329
I311
tp397
a(I311
I312
tp398
a(I312
I329
tp399
a(I328
I173
tp400
a(I173
I153
tp401
a(I153
I328
tp402
a(I153
I347
tp403
a(I347
I328
tp404
a(I411
I153
tp405
a(I411
I347
tp406
a(I411
I412
tp407
a(I412
I347
tp408
a(I154
I412
tp409
a(I329
I152
tp410
a(I152
I128
tp411
a(I128
I329
tp412
a(I330
I152
tp413
a(I329
I330
tp414
a(I128
I413
tp415
a(I413
I329
tp416
a(I173
I413
tp417
a(I173
I329
tp418
a(I168
I312
tp419
a(I29
I211
tp420
a(I380
I211
tp421
a(I211
I408
tp422
a(I408
I380
tp423
a(I349
I30
tp424
a(I30
I407
tp425
a(I407
I349
tp426
a(I380
I30
tp427
a(I380
I60
tp428
a(I60
I30
tp429
a(I211
I348
tp430
a(I348
I408
tp431
a(I159
I449
tp432
a(I409
I408
tp433
a(I409
I59
tp434
a(I59
I380
tp435
a(I380
I409
tp436
a(I60
I59
tp437
a(I60
I407
tp438
a(I407
I175
tp439
a(I175
I349
tp440
a(I350
I175
tp441
a(I175
I405
tp442
a(I405
I350
tp443
a(I350
I349
tp444
a(I351
I350
tp445
a(I350
I406
tp446
a(I406
I351
tp447
a(I354
I353
tp448
a(I353
I351
tp449
a(I351
I354
tp450
a(I354
I32
tp451
a(I32
I353
tp452
a(I492
I480
tp453
a(I405
I406
tp454
a(I352
I354
tp455
a(I351
I352
tp456
a(I352
I176
tp457
a(I176
I354
tp458
a(I358
I354
tp459
a(I354
I355
tp460
a(I355
I358
tp461
a(I358
I32
tp462
a(I406
I404
tp463
a(I404
I352
tp464
a(I352
I406
tp465
a(I155
I176
tp466
a(I176
I404
tp467
a(I354
I155
tp468
a(I155
I355
tp469
a(I408
I90
tp470
a(I156
I400
tp471
a(I402
I155
tp472
a(I402
I403
tp473
a(I403
I355
tp474
a(I355
I402
tp475
a(I403
I359
tp476
a(I359
I355
tp477
a(I403
I31
tp478
a(I31
I359
tp479
a(I403
I212
tp480
a(I212
I31
tp481
a(I212
I396
tp482
a(I396
I31
tp483
a(I64
I65
tp484
a(I359
I358
tp485
a(I356
I400
tp486
a(I400
I401
tp487
a(I401
I356
tp488
a(I356
I212
tp489
a(I400
I396
tp490
a(I396
I401
tp491
a(I401
I212
tp492
a(I396
I136
tp493
a(I400
I136
tp494
a(I400
I177
tp495
a(I177
I136
tp496
a(I156
I357
tp497
a(I357
I400
tp498
a(I449
I450
tp499
a(I126
I388
tp500
a(I312
I388
tp501
a(I126
I312
tp502
a(I388
I20
tp503
a(I388
I167
tp504
a(I167
I20
tp505
a(I312
I167
tp506
a(I312
I330
tp507
a(I51
I52
tp508
a(I52
I296
tp509
a(I296
I389
tp510
a(I389
I52
tp511
a(I51
I296
tp512
a(I296
I147
tp513
a(I147
I389
tp514
a(I389
I126
tp515
a(I296
I126
tp516
a(I126
I147
tp517
a(I296
I313
tp518
a(I313
I126
tp519
a(I313
I312
tp520
a(I314
I331
tp521
a(I331
I313
tp522
a(I313
I314
tp523
a(I281
I296
tp524
a(I331
I312
tp525
a(I330
I331
tp526
a(I331
I53
tp527
a(I53
I330
tp528
a(I53
I202
tp529
a(I202
I330
tp530
a(I414
I202
tp531
a(I414
I330
tp532
a(I152
I414
tp533
a(I331
I415
tp534
a(I415
I53
tp535
a(I415
I151
tp536
a(I331
I151
tp537
a(I205
I151
tp538
a(I331
I205
tp539
a(I205
I172
tp540
a(I332
I172
tp541
a(I205
I332
tp542
a(I172
I27
tp543
a(I331
I332
tp544
a(I332
I27
tp545
a(I296
I297
tp546
a(I297
I313
tp547
a(I297
I298
tp548
a(I298
I314
tp549
a(I314
I297
tp550
a(I298
I315
tp551
a(I315
I314
tp552
a(I332
I315
tp553
a(I315
I333
tp554
a(I333
I332
tp555
a(I332
I314
tp556
a(I315
I316
tp557
a(I316
I333
tp558
a(I333
I416
tp559
a(I416
I332
tp560
a(I298
I299
tp561
a(I299
I315
tp562
a(I299
I300
tp563
a(I300
I316
tp564
a(I316
I299
tp565
a(I300
I317
tp566
a(I317
I316
tp567
a(I334
I317
tp568
a(I317
I335
tp569
a(I335
I334
tp570
a(I334
I316
tp571
a(I317
I318
tp572
a(I318
I335
tp573
a(I335
I88
tp574
a(I88
I334
tp575
a(I300
I301
tp576
a(I301
I317
tp577
a(I334
I333
tp578
a(I334
I58
tp579
a(I58
I333
tp580
a(I333
I130
tp581
a(I130
I86
tp582
a(I86
I333
tp583
a(I86
I416
tp584
a(I130
I417
tp585
a(I417
I58
tp586
a(I333
I417
tp587
a(I27
I416
tp588
a(I334
I109
tp589
a(I109
I58
tp590
a(I109
I418
tp591
a(I418
I88
tp592
a(I133
I419
tp593
a(I133
I88
tp594
a(I335
I133
tp595
a(I418
I334
tp596
a(I335
I419
tp597
a(I335
I87
tp598
a(I87
I419
tp599
a(I156
I399
tp600
a(I399
I357
tp601
a(I110
I399
tp602
a(I110
I357
tp603
a(I397
I400
tp604
a(I357
I397
tp605
a(I135
I397
tp606
a(I357
I135
tp607
a(I397
I111
tp608
a(I177
I397
tp609
a(I398
I357
tp610
a(I110
I398
tp611
a(I135
I398
tp612
a(I111
I135
tp613
a(I493
I224
tp614
a(I99
I119
tp615
a(I9
I186
tp616
a(I285
I286
tp617
a(I286
I300
tp618
a(I181
I218
tp619
a(I489
I181
tp620
a(I62
I113
tp621
a(I464
I114
tp622
a(I114
I218
tp623
a(I218
I464
tp624
a(I113
I114
tp625
a(I490
I464
tp626
a(I218
I490
tp627
a(I464
I465
tp628
a(I465
I64
tp629
a(I64
I221
tp630
a(I221
I65
tp631
a(I65
I466
tp632
a(I225
I466
tp633
a(I65
I225
tp634
a(I466
I467
tp635
a(I113
I218
tp636
a(I91
I463
tp637
a(I138
I91
tp638
a(I463
I138
tp639
a(I138
I489
tp640
a(I463
I95
tp641
a(I463
I62
tp642
a(I62
I95
tp643
a(I218
I62
tp644
a(I160
I221
tp645
a(I94
I138
tp646
a(I63
I94
tp647
a(I94
I33
tp648
a(I33
I489
tp649
a(I489
I94
tp650
a(I33
I462
tp651
a(I462
I489
tp652
a(I63
I33
tp653
a(I462
I181
tp654
a(I181
I490
tp655
a(I460
I160
tp656
a(I460
I221
tp657
a(I225
I460
tp658
a(I460
I461
tp659
a(I461
I225
tp660
a(I225
I221
tp661
a(I461
I188
tp662
a(I188
I225
tp663
a(I189
I188
tp664
a(I495
I225
tp665
a(I188
I495
tp666
a(I185
I181
tp667
a(I189
I495
tp668
a(I495
I466
tp669
a(I143
I472
tp670
a(I472
I46
tp671
a(I196
I143
tp672
a(I470
I196
tp673
a(I470
I260
tp674
a(I260
I196
tp675
a(I260
I143
tp676
a(I471
I470
tp677
a(I143
I259
tp678
a(I259
I472
tp679
a(I19
I474
tp680
a(I473
I74
tp681
a(I473
I258
tp682
a(I258
I74
tp683
a(I74
I19
tp684
a(I258
I272
tp685
a(I258
I19
tp686
a(I258
I259
tp687
a(I259
I272
tp688
a(I257
I19
tp689
a(I473
I197
tp690
a(I197
I258
tp691
a(I272
I286
tp692
a(I197
I46
tp693
a(I46
I259
tp694
a(I259
I197
tp695
a(I259
I273
tp696
a(I273
I272
tp697
a(I273
I260
tp698
a(I260
I274
tp699
a(I274
I273
tp700
a(I259
I260
tp701
a(I260
I261
tp702
a(I261
I274
tp703
a(I274
I288
tp704
a(I288
I273
tp705
a(I273
I287
tp706
a(I287
I272
tp707
a(I471
I260
tp708
a(I467
I13
tp709
a(I468
I13
tp710
a(I13
I239
tp711
a(I239
I468
tp712
a(I468
I14
tp713
a(I469
I14
tp714
a(I14
I239
tp715
a(I239
I469
tp716
a(I239
I16
tp717
a(I16
I469
tp718
a(I13
I240
tp719
a(I240
I239
tp720
a(I499
I467
tp721
a(I467
I232
tp722
a(I232
I499
tp723
a(I495
I467
tp724
a(I232
I495
tp725
a(I495
I459
tp726
a(I459
I232
tp727
a(I459
I68
tp728
a(I68
I499
tp729
a(I499
I459
tp730
a(I69
I68
tp731
a(I458
I69
tp732
a(I459
I189
tp733
a(I499
I13
tp734
a(I240
I499
tp735
a(I499
I69
tp736
a(I69
I240
tp737
a(I16
I123
tp738
a(I123
I73
tp739
a(I16
I248
tp740
a(I248
I123
tp741
a(I471
I73
tp742
a(I73
I248
tp743
a(I248
I471
tp744
a(I471
I261
tp745
a(I248
I261
tp746
a(I248
I249
tp747
a(I249
I261
tp748
a(I261
I275
tp749
a(I275
I274
tp750
a(I239
I248
tp751
a(I249
I240
tp752
a(I240
I458
tp753
a(I458
I249
tp754
a(I15
I193
tp755
a(I193
I457
tp756
a(I457
I15
tp757
a(I458
I193
tp758
a(I193
I249
tp759
a(I261
I262
tp760
a(I262
I275
tp761
a(I249
I262
tp762
a(I15
I250
tp763
a(I250
I193
tp764
a(I249
I250
tp765
a(I250
I262
tp766
a(I276
I275
tp767
a(I262
I276
tp768
a(I248
I240
tp769
a(I275
I289
tp770
a(I289
I274
tp771
a(I450
I9
tp772
a(I227
I226
tp773
a(I226
I451
tp774
a(I451
I227
tp775
a(I186
I451
tp776
a(I186
I227
tp777
a(I233
I454
tp778
a(I454
I453
tp779
a(I453
I233
tp780
a(I444
I453
tp781
a(I454
I444
tp782
a(I233
I191
tp783
a(I453
I191
tp784
a(I162
I452
tp785
a(I452
I226
tp786
a(I226
I162
tp787
a(I162
I139
tp788
a(I452
I451
tp789
a(I226
I234
tp790
a(I234
I162
tp791
a(I234
I139
tp792
a(I226
I445
tp793
a(I445
I234
tp794
a(I454
I234
tp795
a(I234
I444
tp796
a(I454
I139
tp797
a(I226
I446
tp798
a(I446
I445
tp799
a(I445
I67
tp800
a(I67
I234
tp801
a(I9
I222
tp802
a(I222
I186
tp803
a(I5
I159
tp804
a(I159
I222
tp805
a(I222
I449
tp806
a(I222
I450
tp807
a(I5
I448
tp808
a(I448
I159
tp809
a(I4
I183
tp810
a(I7
I448
tp811
a(I5
I7
tp812
a(I7
I4
tp813
a(I5
I4
tp814
a(I7
I8
tp815
a(I8
I448
tp816
a(I227
I447
tp817
a(I447
I120
tp818
a(I120
I227
tp819
a(I227
I222
tp820
a(I222
I447
tp821
a(I120
I100
tp822
a(I100
I496
tp823
a(I496
I120
tp824
a(I496
I227
tp825
a(I446
I100
tp826
a(I496
I226
tp827
a(I37
I448
tp828
a(I37
I187
tp829
a(I187
I222
tp830
a(I222
I37
tp831
a(I447
I187
tp832
a(I222
I448
tp833
a(I455
I456
tp834
a(I456
I194
tp835
a(I194
I142
tp836
a(I251
I142
tp837
a(I194
I251
tp838
a(I142
I195
tp839
a(I195
I457
tp840
a(I456
I251
tp841
a(I241
I70
tp842
a(I70
I163
tp843
a(I163
I241
tp844
a(I163
I191
tp845
a(I191
I241
tp846
a(I455
I41
tp847
a(I41
I241
tp848
a(I241
I455
tp849
a(I41
I70
tp850
a(I241
I456
tp851
a(I453
I241
tp852
a(I241
I252
tp853
a(I252
I456
tp854
a(I250
I195
tp855
a(I195
I17
tp856
a(I17
I250
tp857
a(I250
I457
tp858
a(I142
I17
tp859
a(I251
I250
tp860
a(I17
I251
tp861
a(I264
I263
tp862
a(I263
I250
tp863
a(I250
I264
tp864
a(I251
I264
tp865
a(I251
I252
tp866
a(I252
I264
tp867
a(I278
I263
tp868
a(I264
I278
tp869
a(I263
I262
tp870
a(I252
I265
tp871
a(I265
I264
tp872
a(I442
I124
tp873
a(I124
I252
tp874
a(I252
I442
tp875
a(I441
I125
tp876
a(I265
I124
tp877
a(I124
I125
tp878
a(I125
I265
tp879
a(I265
I441
tp880
a(I441
I78
tp881
a(I78
I265
tp882
a(I265
I279
tp883
a(I279
I264
tp884
a(I277
I262
tp885
a(I263
I277
tp886
a(I241
I44
tp887
a(I44
I252
tp888
a(I443
I444
tp889
a(I444
I242
tp890
a(I242
I443
tp891
a(I443
I44
tp892
a(I241
I443
tp893
a(I442
I45
tp894
a(I252
I45
tp895
a(I44
I45
tp896
a(I241
I444
tp897
a(I39
I67
tp898
a(I234
I39
tp899
a(I39
I444
tp900
a(I75
I47
tp901
a(I75
I437
tp902
a(I437
I47
tp903
a(I47
I145
tp904
a(I145
I280
tp905
a(I280
I105
tp906
a(I105
I145
tp907
a(I437
I145
tp908
a(I437
I280
tp909
a(I75
I266
tp910
a(I266
I437
tp911
a(I48
I266
tp912
a(I437
I76
tp913
a(I76
I280
tp914
a(I76
I48
tp915
a(I76
I49
tp916
a(I49
I280
tp917
a(I77
I49
tp918
a(I437
I48
tp919
a(I77
I280
tp920
a(I78
I279
tp921
a(I286
I287
tp922
a(I287
I301
tp923
a(I301
I286
tp924
a(I287
I302
tp925
a(I302
I301
tp926
a(I301
I318
tp927
a(I336
I318
tp928
a(I318
I319
tp929
a(I319
I336
tp930
a(I302
I318
tp931
a(I302
I319
tp932
a(I336
I87
tp933
a(I335
I336
tp934
a(I287
I288
tp935
a(I288
I302
tp936
a(I288
I289
tp937
a(I289
I303
tp938
a(I303
I288
tp939
a(I320
I303
tp940
a(I303
I304
tp941
a(I304
I320
tp942
a(I303
I319
tp943
a(I302
I303
tp944
a(I319
I320
tp945
a(I320
I337
tp946
a(I337
I319
tp947
a(I320
I338
tp948
a(I338
I337
tp949
a(I337
I336
tp950
a(I320
I321
tp951
a(I321
I338
tp952
a(I337
I57
tp953
a(I57
I336
tp954
a(I337
I421
tp955
a(I421
I85
tp956
a(I85
I337
tp957
a(I85
I57
tp958
a(I336
I132
tp959
a(I132
I87
tp960
a(I57
I420
tp961
a(I420
I336
tp962
a(I132
I420
tp963
a(I54
I339
tp964
a(I339
I108
tp965
a(I108
I54
tp966
a(I338
I339
tp967
a(I54
I338
tp968
a(I422
I54
tp969
a(I422
I338
tp970
a(I338
I208
tp971
a(I208
I171
tp972
a(I171
I338
tp973
a(I422
I208
tp974
a(I171
I421
tp975
a(I337
I171
tp976
a(I289
I304
tp977
a(I289
I290
tp978
a(I290
I304
tp979
a(I289
I276
tp980
a(I276
I290
tp981
a(I276
I277
tp982
a(I277
I290
tp983
a(I290
I305
tp984
a(I305
I304
tp985
a(I321
I305
tp986
a(I305
I322
tp987
a(I322
I321
tp988
a(I321
I304
tp989
a(I305
I306
tp990
a(I306
I322
tp991
a(I322
I340
tp992
a(I340
I321
tp993
a(I290
I291
tp994
a(I291
I305
tp995
a(I277
I278
tp996
a(I278
I291
tp997
a(I291
I277
tp998
a(I278
I292
tp999
a(I292
I291
tp1000
a(I323
I306
tp1001
a(I306
I307
tp1002
a(I307
I323
tp1003
a(I292
I306
tp1004
a(I306
I291
tp1005
a(I324
I342
tp1006
a(I342
I341
tp1007
a(I341
I324
tp1008
a(I323
I322
tp1009
a(I278
I279
tp1010
a(I279
I292
tp1011
a(I323
I341
tp1012
a(I341
I322
tp1013
a(I423
I339
tp1014
a(I339
I207
tp1015
a(I207
I423
tp1016
a(I340
I339
tp1017
a(I339
I321
tp1018
a(I340
I207
tp1019
a(I423
I108
tp1020
a(I340
I56
tp1021
a(I56
I207
tp1022
a(I340
I424
tp1023
a(I424
I56
tp1024
a(I340
I206
tp1025
a(I206
I424
tp1026
a(I323
I324
tp1027
a(I342
I84
tp1028
a(I84
I341
tp1029
a(I425
I84
tp1030
a(I425
I341
tp1031
a(I341
I55
tp1032
a(I55
I206
tp1033
a(I206
I341
tp1034
a(I425
I55
tp1035
a(I340
I341
tp1036
a(I84
I107
tp1037
a(I292
I307
tp1038
a(I279
I440
tp1039
a(I440
I106
tp1040
a(I106
I279
tp1041
a(I78
I440
tp1042
a(I440
I50
tp1043
a(I50
I106
tp1044
a(I50
I279
tp1045
a(I293
I50
tp1046
a(I50
I80
tp1047
a(I80
I293
tp1048
a(I293
I279
tp1049
a(I80
I82
tp1050
a(I82
I293
tp1051
a(I293
I307
tp1052
a(I292
I293
tp1053
a(I438
I146
tp1054
a(I438
I166
tp1055
a(I166
I146
tp1056
a(I439
I438
tp1057
a(I438
I294
tp1058
a(I294
I166
tp1059
a(I82
I146
tp1060
a(I146
I294
tp1061
a(I294
I82
tp1062
a(I294
I293
tp1063
a(I438
I295
tp1064
a(I295
I294
tp1065
a(I294
I308
tp1066
a(I308
I293
tp1067
a(I307
I324
tp1068
a(I325
I342
tp1069
a(I324
I325
tp1070
a(I343
I204
tp1071
a(I204
I342
tp1072
a(I342
I343
tp1073
a(I342
I107
tp1074
a(I204
I426
tp1075
a(I426
I342
tp1076
a(I25
I204
tp1077
a(I343
I25
tp1078
a(I307
I308
tp1079
a(I308
I324
tp1080
a(I426
I107
tp1081
a(I308
I325
tp1082
a(I308
I309
tp1083
a(I309
I325
tp1084
a(I325
I326
tp1085
a(I326
I343
tp1086
a(I343
I325
tp1087
a(I427
I150
tp1088
a(I427
I343
tp1089
a(I343
I150
tp1090
a(I343
I344
tp1091
a(I344
I150
tp1092
a(I25
I427
tp1093
a(I326
I344
tp1094
a(I150
I201
tp1095
a(I294
I309
tp1096
a(I280
I295
tp1097
a(I438
I280
tp1098
a(I280
I439
tp1099
a(I439
I105
tp1100
a(I200
I310
tp1101
a(I310
I295
tp1102
a(I295
I200
tp1103
a(I295
I309
tp1104
a(I309
I310
tp1105
a(I310
I327
tp1106
a(I327
I309
tp1107
a(I200
I434
tp1108
a(I434
I310
tp1109
a(I434
I21
tp1110
a(I21
I310
tp1111
a(I280
I436
tp1112
a(I436
I295
tp1113
a(I436
I435
tp1114
a(I199
I295
tp1115
a(I436
I199
tp1116
a(I435
I77
tp1117
a(I200
I199
tp1118
a(I280
I435
tp1119
a(I345
I326
tp1120
a(I326
I327
tp1121
a(I327
I345
tp1122
a(I326
I309
tp1123
a(I83
I327
tp1124
a(I327
I433
tp1125
a(I433
I83
tp1126
a(I83
I345
tp1127
a(I428
I344
tp1128
a(I344
I170
tp1129
a(I170
I428
tp1130
a(I345
I344
tp1131
a(I345
I26
tp1132
a(I26
I344
tp1133
a(I428
I201
tp1134
a(I201
I344
tp1135
a(I83
I432
tp1136
a(I432
I345
tp1137
a(I22
I21
tp1138
a(I22
I433
tp1139
a(I327
I22
tp1140
a(I22
I310
tp1141
a(I429
I345
tp1142
a(I432
I429
tp1143
a(I131
I432
tp1144
a(I446
I496
tp1145
a(I26
I170
tp1146
a(I429
I26
tp1147
a(I429
I129
tp1148
a(I129
I174
tp1149
a(I432
I129
tp1150
a(I174
I131
tp1151
a(I131
I430
tp1152
a(I430
I174
tp1153
a(I432
I174
tp1154
a(I131
I431
tp1155
a(I431
I430
tp1156
a(I209
I431
tp1157
a(I209
I430
tp1158
a(I497
I373
tp1159
asS'points'
p1160
(lp1161
(F-2.1666669845581055
F-10.0
tp1162
a(F-1.9969273805618286
F-9.972725868225098
tp1163
a(F-6.6666669845581055
F-9.792027473449707
tp1164
a(F-1.8325926065444946
F-8.921619415283203
tp1165
a(F9.845300674438477
F-8.722299575805664
tp1166
a(F9.331255912780762
F-8.585097312927246
tp1167
a(F-2.4891774654388428
F-8.436413764953613
tp1168
a(F10.0
F-8.336222648620605
tp1169
a(F10.0
F-8.128249168395996
tp1170
a(F8.683995246887207
F-7.937946796417236
tp1171
a(F-7.166667461395264
F-7.296360969543457
tp1172
a(F-6.984018325805664
F-5.9119873046875
tp1173
a(F-2.4846954345703125
F-5.191174030303955
tp1174
a(F3.0044944286346436
F-5.112058639526367
tp1175
a(F2.99401593208313
F-5.044393062591553
tp1176
a(F4.8456244468688965
F-4.310312747955322
tp1177
a(F2.8333323001861572
F-4.142114639282227
tp1178
a(F5.349717140197754
F-4.119135856628418
tp1179
a(F-1.3333334922790527
F-3.656845808029175
tp1180
a(F-0.33333370089530945
F-3.656845808029175
tp1181
a(F-6.000977039337158
F0.29022330045700073
tp1182
a(F9.67036247253418
F0.46833741664886475
tp1183
a(F9.659295082092285
F0.5356155633926392
tp1184
a(F-7.670426845550537
F0.979856014251709
tp1185
a(F-9.011492729187012
F2.2253401279449463
tp1186
a(F6.50491189956665
F2.3043150901794434
tp1187
a(F8.328825950622559
F2.417588710784912
tp1188
a(F-4.0010199546813965
F2.62147855758667
tp1189
a(F-9.51593017578125
F3.1280760765075684
tp1190
a(F-9.85262393951416
F4.309968948364258
tp1191
a(F-10.0
F5.8058929443359375
tp1192
a(F-7.5
F10.0
tp1193
a(F-10.0
F10.0
tp1194
a(F4.67169189453125
F-9.12321949005127
tp1195
a(F-3.1458330154418945
F-9.064125061035156
tp1196
a(F-1.8061496019363403
F-8.958932876586914
tp1197
a(F-6.479166507720947
F-8.578855514526367
tp1198
a(F9.671716690063477
F-7.547923564910889
tp1199
a(F-4.306301593780518
F-6.361631870269775
tp1200
a(F8.506128311157227
F-5.952698707580566
tp1201
a(F-6.9720025062561035
F-5.842104434967041
tp1202
a(F6.171171188354492
F-5.0895094871521
tp1203
a(F-6.792598247528076
F-5.012971878051758
tp1204
a(F-1.9944716691970825
F-4.375550270080566
tp1205
a(F7.535536766052246
F-4.203280448913574
tp1206
a(F7.508148670196533
F-4.147634506225586
tp1207
a(F0.687073290348053
F-3.763784408569336
tp1208
a(F8.836997985839844
F-2.983304023742676
tp1209
a(F9.180588722229004
F-2.93038010597229
tp1210
a(F9.86298942565918
F-2.3499817848205566
tp1211
a(F7.200185775756836
F-1.7952616214752197
tp1212
a(F-5.4825263023376465
F-0.2942992150783539
tp1213
a(F-5.4724907875061035
F-0.2266407608985901
tp1214
a(F-5.812928199768066
F2.1693296432495117
tp1215
a(F2.688519239425659
F2.378845691680908
tp1216
a(F4.6855998039245605
F2.4376745223999023
tp1217
a(F3.6875009536743164
F2.443674087524414
tp1218
a(F0.8492551445960999
F2.7563424110412598
tp1219
a(F-2.1456003189086914
F2.9267542362213135
tp1220
a(F-9.136039733886719
F5.288994312286377
tp1221
a(F-9.14673900604248
F5.355261325836182
tp1222
a(F-1.9714761972427368
F-9.955284118652344
tp1223
a(F3.6972713470458984
F-9.622706413269043
tp1224
a(F4.687604904174805
F-9.13491439819336
tp1225
a(F3.3800930976867676
F-7.954173564910889
tp1226
a(F3.3705039024353027
F-7.886207580566406
tp1227
a(F-4.309741497039795
F-6.40220832824707
tp1228
a(F8.5270357131958
F-5.988729000091553
tp1229
a(F4.369288921356201
F-5.319655418395996
tp1230
a(F4.388384819030762
F-5.257620811462402
tp1231
a(F6.196840763092041
F-5.123012542724609
tp1232
a(F-6.776362419128418
F-4.98320198059082
tp1233
a(F-1.9698257446289062
F-4.339725494384766
tp1234
a(F2.5423545837402344
F-4.069066524505615
tp1235
a(F-0.2918989360332489
F-3.65903377532959
tp1236
a(F8.874137878417969
F-2.9941134452819824
tp1237
a(F9.19951057434082
F-2.9186487197875977
tp1238
a(F9.87354850769043
F-2.305086851119995
tp1239
a(F7.04288911819458
F-2.027686834335327
tp1240
a(F-5.632007122039795
F-1.7836154699325562
tp1241
a(F7.225625038146973
F-1.7689117193222046
tp1242
a(F-5.621640682220459
F-1.7161002159118652
tp1243
a(F7.541666507720947
F-1.473137378692627
tp1244
a(F9.395833015441895
F1.7157704830169678
tp1245
a(F5.531683921813965
F2.1695406436920166
tp1246
a(F0.8743116855621338
F2.7519075870513916
tp1247
a(F-3.123979330062866
F2.820460081100464
tp1248
a(F-0.12490038573741913
F2.895716905593872
tp1249
a(F-1.1249760389328003
F2.962897300720215
tp1250
a(F-8.775816917419434
F4.152434349060059
tp1251
a(F-8.801461219787598
F4.208406448364258
tp1252
a(F4.233492851257324
F-9.922225952148438
tp1253
a(F-2.604166269302368
F-9.896013259887695
tp1254
a(F-6.1041669845581055
F-9.896013259887695
tp1255
a(F4.729166030883789
F-9.72270393371582
tp1256
a(F3.7248408794403076
F-9.661829948425293
tp1257
a(F-6.2708330154418945
F-8.78682804107666
tp1258
a(F-2.9190633296966553
F-7.359036445617676
tp1259
a(F-6.278514862060547
F-6.9132819175720215
tp1260
a(F-3.093104839324951
F-6.876427173614502
tp1261
a(F9.046649932861328
F-6.786750316619873
tp1262
a(F-2.918581962585449
F-6.262518882751465
tp1263
a(F-4.437499523162842
F-5.597919940948486
tp1264
a(F-6.28613805770874
F-4.167578220367432
tp1265
a(F-6.260316848754883
F-4.111008167266846
tp1266
a(F8.412867546081543
F-2.6089394092559814
tp1267
a(F7.0498127937316895
F-1.9829018115997314
tp1268
a(F5.56207275390625
F2.1693296432495117
tp1269
a(F2.729057550430298
F2.3758487701416016
tp1270
a(F-2.1041905879974365
F2.9296483993530273
tp1271
a(F-5.9375
F8.856152534484863
tp1272
a(F-5.7851057052612305
F9.418244361877441
tp1273
a(F-7.083333969116211
F-9.514731407165527
tp1274
a(F3.5943946838378906
F-9.337431907653809
tp1275
a(F3.5782406330108643
F-9.272862434387207
tp1276
a(F-3.5833330154418945
F-8.058924674987793
tp1277
a(F-6.416666507720947
F-7.504332065582275
tp1278
a(F-2.9046988487243652
F-7.395551681518555
tp1279
a(F-6.257917404174805
F-6.870303153991699
tp1280
a(F-3.1022512912750244
F-6.8397345542907715
tp1281
a(F9.07099723815918
F-6.821329593658447
tp1282
a(F-5.9166669845581055
F-6.603119373321533
tp1283
a(F-2.9046988487243652
F-6.226632595062256
tp1284
a(F2.5820510387420654
F-4.077794551849365
tp1285
a(F7.096015930175781
F-3.2007193565368652
tp1286
a(F7.082108497619629
F-3.136957883834839
tp1287
a(F-5.415689945220947
F0.1603841483592987
tp1288
a(F-8.40517520904541
F1.5528210401535034
tp1289
a(F-6.763331413269043
F2.3806042671203613
tp1290
a(F9.08784008026123
F2.816378593444824
tp1291
a(F-3.0835652351379395
F2.827144145965576
tp1292
a(F9.75
F2.8596179485321045
tp1293
a(F-0.08376064896583557
F2.8913276195526123
tp1294
a(F-1.0834333896636963
F2.9621665477752686
tp1295
a(F-8.265850067138672
F3.3692283630371094
tp1296
a(F-5.778661251068115
F9.384696960449219
tp1297
a(F-6.582645416259766
F9.830413818359375
tp1298
a(F-2.062499523162842
F-10.0
tp1299
a(F4.26753044128418
F-9.923066139221191
tp1300
a(F7.448119640350342
F-6.454056739807129
tp1301
a(F-4.229166507720947
F-5.944540500640869
tp1302
a(F-4.057992935180664
F-5.398526191711426
tp1303
a(F5.6111884117126465
F-4.305576801300049
tp1304
a(F1.6045935153961182
F-3.8965280055999756
tp1305
a(F-5.906350135803223
F-3.064035654067993
tp1306
a(F8.428506851196289
F-2.6273036003112793
tp1307
a(F7.940572738647461
F-1.6390600204467773
tp1308
a(F-5.402509689331055
F0.12265440821647644
tp1309
a(F-6.892073631286621
F0.6145976185798645
tp1310
a(F-8.379009246826172
F1.5292867422103882
tp1311
a(F7.43792724609375
F2.1693296432495117
tp1312
a(F-4.8954057693481445
F2.302072763442993
tp1313
a(F-6.730186939239502
F2.369853973388672
tp1314
a(F-7.57962703704834
F2.770311117172241
tp1315
a(F-8.23798942565918
F3.3345932960510254
tp1316
a(F-8.229166984558105
F8.78682804107666
tp1317
a(F-6.395833969116211
F8.92547607421875
tp1318
a(F-5.869724273681641
F-9.020402908325195
tp1319
a(F-7.208333492279053
F-8.960138320922852
tp1320
a(F9.302287101745605
F-8.568441390991211
tp1321
a(F4.125426292419434
F-8.301565170288086
tp1322
a(F-4.041666507720947
F-7.088387966156006
tp1323
a(F7.475367069244385
F-6.484994411468506
tp1324
a(F6.803159236907959
F-5.795531749725342
tp1325
a(F-4.052183628082275
F-5.421054840087891
tp1326
a(F-5.894944190979004
F-3.028717041015625
tp1327
a(F7.971717357635498
F-1.6747888326644897
tp1328
a(F-6.039215564727783
F0.3013407588005066
tp1329
a(F-6.86383056640625
F0.6025062203407288
tp1330
a(F-7.70041561126709
F0.9979805946350098
tp1331
a(F8.293221473693848
F2.4035353660583496
tp1332
a(F1.785470962524414
F2.5834672451019287
tp1333
a(F-4.039215087890625
F2.6102705001831055
tp1334
a(F-7.545427322387695
F2.74761962890625
tp1335
a(F9.11981201171875
F2.8339667320251465
tp1336
a(F-9.1875
F6.9150776863098145
tp1337
a(F-8.875
F8.128249168395996
tp1338
a(F-6.546174049377441
F9.818113327026367
tp1339
a(F-5.8541669845581055
F-9.618717193603516
tp1340
a(F-1.6875007152557373
F-9.58405590057373
tp1341
a(F-5.8541669845581055
F-9.06412410736084
tp1342
a(F4.312500953674316
F-8.890814781188965
tp1343
a(F-2.3541665077209473
F-8.821490287780762
tp1344
a(F9.814577102661133
F-8.745925903320312
tp1345
a(F-2.5028820037841797
F-8.39835262298584
tp1346
a(F4.127138137817383
F-8.34254264831543
tp1347
a(F8.658167839050293
F-7.910038948059082
tp1348
a(F9.658167839050293
F-7.528756141662598
tp1349
a(F4.145409107208252
F-6.672438621520996
tp1350
a(F4.151546001434326
F-6.6040873527526855
tp1351
a(F-5.1875
F-6.083188533782959
tp1352
a(F6.829827785491943
F-5.823561668395996
tp1353
a(F-2.502882480621338
F-5.2238311767578125
tp1354
a(F4.829535484313965
F-4.323469638824463
tp1355
a(F5.631923675537109
F-4.3252387046813965
tp1356
a(F5.315573215484619
F-4.114840030670166
tp1357
a(F1.6451449394226074
F-3.9032044410705566
tp1358
a(F0.6460652947425842
F-3.7586441040039062
tp1359
a(F-1.3714053630828857
F-3.675966262817383
tp1360
a(F9.813950538635254
F-0.8838216066360474
tp1361
a(F9.808802604675293
F-0.8149572610855103
tp1362
a(F7.477609634399414
F2.1718533039093018
tp1363
a(F-5.853147029876709
F2.1708734035491943
tp1364
a(F-9.035538673400879
F2.2622056007385254
tp1365
a(F6.479593276977539
F2.302072763442993
tp1366
a(F-4.856618881225586
F2.3117382526397705
tp1367
a(F4.645833969116211
F2.443674087524414
tp1368
a(F3.645942211151123
F2.4421746730804443
tp1369
a(F1.8114800453186035
F2.5778262615203857
tp1370
a(F9.645833015441895
F3.136913299560547
tp1371
a(F-9.529911041259766
F3.169009208679199
tp1372
a(F-9.857526779174805
F4.349757671356201
tp1373
a(F-7.354166507720947
F9.064125061035156
tp1374
a(F-2.0
F-10.0
tp1375
a(F-7.000000476837158
F-9.0
tp1376
a(F-6.000000476837158
F-9.0
tp1377
a(F-3.0
F-9.0
tp1378
a(F-2.0
F-9.0
tp1379
a(F4.0
F-9.0
tp1380
a(F-7.0
F-8.0
tp1381
a(F-3.0
F-8.0
tp1382
a(F4.0
F-8.0
tp1383
a(F9.0
F-8.0
tp1384
a(F-7.0
F-7.0
tp1385
a(F-4.0
F-7.0
tp1386
a(F4.0
F-7.0
tp1387
a(F8.0
F-7.0
tp1388
a(F9.0
F-7.0
tp1389
a(F-7.0
F-6.0
tp1390
a(F-6.0
F-6.0
tp1391
a(F-4.0
F-6.0
tp1392
a(F-3.0
F-6.0
tp1393
a(F4.0
F-6.0
tp1394
a(F7.0
F-6.0
tp1395
a(F8.0
F-6.000000476837158
tp1396
a(F-6.0
F-5.0
tp1397
a(F-5.0
F-5.0
tp1398
a(F-4.0
F-5.0
tp1399
a(F-3.0
F-5.0
tp1400
a(F3.0
F-5.0
tp1401
a(F4.0
F-5.0
tp1402
a(F7.0
F-5.0
tp1403
a(F8.0
F-5.0
tp1404
a(F-6.000000476837158
F-4.0
tp1405
a(F-5.0
F-4.0
tp1406
a(F-4.0
F-4.0
tp1407
a(F-3.0
F-4.0
tp1408
a(F-2.0
F-4.0
tp1409
a(F3.0
F-4.0
tp1410
a(F4.0
F-4.0
tp1411
a(F5.0
F-4.0
tp1412
a(F6.0
F-4.0
tp1413
a(F7.0
F-4.0
tp1414
a(F-5.0
F-3.0
tp1415
a(F-4.0
F-3.0
tp1416
a(F-3.0
F-3.0
tp1417
a(F-2.0
F-3.0
tp1418
a(F-1.0
F-3.0
tp1419
a(F0.0
F-3.0
tp1420
a(F1.0
F-3.0
tp1421
a(F2.0
F-3.0
tp1422
a(F3.0
F-3.0
tp1423
a(F4.0
F-3.0
tp1424
a(F5.0
F-3.0
tp1425
a(F6.0
F-3.0
tp1426
a(F7.0
F-3.0
tp1427
a(F9.0
F-3.0
tp1428
a(F-5.0
F-2.0
tp1429
a(F-4.0
F-2.0
tp1430
a(F-3.0
F-2.0
tp1431
a(F-2.0
F-2.0
tp1432
a(F-1.0
F-2.0
tp1433
a(F0.0
F-2.0
tp1434
a(F1.0
F-2.0
tp1435
a(F2.0
F-2.0
tp1436
a(F3.0
F-2.0
tp1437
a(F4.0
F-2.0
tp1438
a(F5.0
F-2.0
tp1439
a(F6.0
F-2.0
tp1440
a(F7.0
F-2.0
tp1441
a(F9.0
F-2.0
tp1442
a(F-5.0
F-1.0
tp1443
a(F-4.0
F-1.0
tp1444
a(F-3.0
F-1.0
tp1445
a(F-2.0
F-1.0
tp1446
a(F-1.0
F-1.0
tp1447
a(F0.0
F-1.0
tp1448
a(F1.0
F-1.0
tp1449
a(F2.0
F-1.0
tp1450
a(F3.0
F-1.0
tp1451
a(F4.0
F-1.0
tp1452
a(F5.0
F-1.0
tp1453
a(F6.0
F-1.0
tp1454
a(F7.0
F-1.0
tp1455
a(F8.0
F-1.0
tp1456
a(F9.0
F-1.0
tp1457
a(F-5.0
F-9.957992278451122e-19
tp1458
a(F-4.0
F-9.957992278451122e-19
tp1459
a(F-3.0
F-9.957992278451122e-19
tp1460
a(F-2.0
F-9.957992278451122e-19
tp1461
a(F-1.0
F-9.957992278451122e-19
tp1462
a(F0.0
F-9.957992278451122e-19
tp1463
a(F1.0
F-9.957992278451122e-19
tp1464
a(F2.0
F-9.957992278451122e-19
tp1465
a(F3.0
F-9.957992278451122e-19
tp1466
a(F4.0
F-9.957992278451122e-19
tp1467
a(F5.0
F-9.957992278451122e-19
tp1468
a(F6.0
F-9.957992278451122e-19
tp1469
a(F7.0
F-9.957992278451122e-19
tp1470
a(F8.0
F-9.957992278451122e-19
tp1471
a(F9.0
F-9.957992278451122e-19
tp1472
a(F-7.0
F1.0
tp1473
a(F-6.000000476837158
F1.0
tp1474
a(F-5.0
F1.0
tp1475
a(F-4.0
F1.0
tp1476
a(F-3.0
F1.0
tp1477
a(F-2.0
F1.0
tp1478
a(F-1.0
F1.0
tp1479
a(F0.0
F1.0
tp1480
a(F1.0
F1.0
tp1481
a(F2.0
F1.0
tp1482
a(F3.0
F1.0
tp1483
a(F4.0
F1.0
tp1484
a(F5.0
F1.0
tp1485
a(F6.0
F1.0
tp1486
a(F7.0
F1.0
tp1487
a(F8.0
F1.0
tp1488
a(F9.0
F1.0
tp1489
a(F-8.0
F2.0
tp1490
a(F-7.0
F2.0
tp1491
a(F-6.000000476837158
F2.0
tp1492
a(F-5.0
F2.0
tp1493
a(F-4.0
F2.0
tp1494
a(F-3.0
F2.0
tp1495
a(F-2.0
F2.0
tp1496
a(F-1.0
F2.0
tp1497
a(F0.0
F2.0
tp1498
a(F1.0
F2.0
tp1499
a(F2.0
F2.0
tp1500
a(F3.0
F2.0
tp1501
a(F4.0
F2.0
tp1502
a(F5.0
F2.0
tp1503
a(F6.0
F2.0
tp1504
a(F7.0
F2.0
tp1505
a(F8.0
F2.0
tp1506
a(F9.0
F2.0
tp1507
a(F-9.0
F3.0
tp1508
a(F-8.0
F3.0
tp1509
a(F-9.0
F4.0
tp1510
a(F-10.0
F6.0
tp1511
a(F-10.0
F7.0
tp1512
a(F-10.0
F8.0
tp1513
a(F-9.0
F8.0
tp1514
a(F-10.0
F9.0
tp1515
a(F-9.0
F9.0
tp1516
a(F-8.0
F9.0
tp1517
a(F-7.0
F9.0
tp1518
a(F-6.000000476837158
F9.0
tp1519
a(F-9.0
F10.0
tp1520
a(F-8.0
F10.000000953674316
tp1521
a(F-6.995630264282227
F-6.000000476837158
tp1522
a(F-7.127566337585449
F-7.0
tp1523
a(F-7.0
F-6.033120155334473
tp1524
a(F-7.18428897857666
F-8.0
tp1525
a(F-7.199349403381348
F-9.0
tp1526
a(F-7.0
F-9.570191383361816
tp1527
a(F-6.000000476837158
F-9.780472755432129
tp1528
a(F-5.904762268066406
F-9.0
tp1529
a(F-6.000000476837158
F-8.944540977478027
tp1530
a(F-6.445497512817383
F-8.0
tp1531
a(F-6.298784255981445
F-7.0
tp1532
a(F-6.000000476837158
F-6.668365478515625
tp1533
a(F-5.0
F-5.961871147155762
tp1534
a(F-5.058929920196533
F-6.0
tp1535
a(F-4.2394232749938965
F-6.000000476837158
tp1536
a(F-4.076198101043701
F-7.0
tp1537
a(F-3.6111600399017334
F-8.0
tp1538
a(F-4.0
F-7.176618576049805
tp1539
a(F-3.1737422943115234
F-9.0
tp1540
a(F-3.0
F-9.288093566894531
tp1541
a(F-9.921148300170898
F5.0
tp1542
a(F-9.764951705932617
F4.0
tp1543
a(F-9.44487190246582
F3.0
tp1544
a(F-8.808334350585938
F2.0
tp1545
a(F-9.0
F2.2125930786132812
tp1546
a(F-7.702995300292969
F1.0
tp1547
a(F-8.0
F1.2325403690338135
tp1548
a(F-7.000000476837158
F0.6652437448501587
tp1549
a(F-6.000000476837158
F0.2900063395500183
tp1550
a(F-5.4270830154418945
F-9.957992278451122e-19
tp1551
a(F-5.55157470703125
F-1.0
tp1552
a(F-5.6777024269104
F-2.0
tp1553
a(F-5.888879776000977
F-3.0
tp1554
a(F-6.0
F-3.3410370349884033
tp1555
a(F-6.2227864265441895
F-4.0
tp1556
a(F-6.785523414611816
F-5.0
tp1557
a(F-7.0
F9.907567024230957
tp1558
a(F-6.000000476837158
F9.531149864196777
tp1559
a(F-5.894271373748779
F9.0
tp1560
a(F-6.0
F8.865606307983398
tp1561
a(F-6.910937309265137
F9.0
tp1562
a(F-7.0
F9.012885093688965
tp1563
a(F-8.0
F8.859453201293945
tp1564
a(F-7.556510925292969
F9.0
tp1565
a(F-8.908035278320312
F8.0
tp1566
a(F-9.16562557220459
F7.0
tp1567
a(F-9.0
F7.642981052398682
tp1568
a(F-9.16358757019043
F6.0
tp1569
a(F-8.999999046325684
F4.849624156951904
tp1570
a(F-9.046560287475586
F5.0
tp1571
a(F-8.676563262939453
F4.0
tp1572
a(F-7.847611427307129
F3.0
tp1573
a(F-8.0
F3.1306118965148926
tp1574
a(F-7.0
F2.491666793823242
tp1575
a(F-6.000000476837158
F2.204191207885742
tp1576
a(F-5.0
F2.286940336227417
tp1577
a(F-4.0
F2.6217098236083984
tp1578
a(F-3.0
F2.8360183238983154
tp1579
a(F-2.0
F2.9331867694854736
tp1580
a(F-1.0
F2.9563825130462646
tp1581
a(F0.0
F2.87920880317688
tp1582
a(F1.0
F2.728672504425049
tp1583
a(F2.0
F2.53505539894104
tp1584
a(F3.0
F2.3954482078552246
tp1585
a(F4.0
F2.443674087524414
tp1586
a(F5.0
F2.3380370140075684
tp1587
a(F6.0
F2.232686996459961
tp1588
a(F7.0
F2.232686996459961
tp1589
a(F8.0
F2.3202438354492188
tp1590
a(F9.0
F2.77022647857666
tp1591
a(F9.408103942871094
F3.0
tp1592
a(F9.697265625
F3.0
tp1593
a(F9.483838081359863
F2.0
tp1594
a(F9.555624008178711
F1.0
tp1595
a(F9.72088623046875
F-9.957992278451122e-19
tp1596
a(F9.860754013061523
F-2.0
tp1597
a(F9.81882095336914
F-1.0
tp1598
a(F9.0
F-2.96793794631958
tp1599
a(F8.0
F-1.7346789836883545
tp1600
a(F8.125297546386719
F-2.0
tp1601
a(F7.0471696853637695
F-2.0
tp1602
a(F7.077266693115234
F-3.0
tp1603
a(F7.443892478942871
F-4.0
tp1604
a(F7.977563381195068
F-5.0
tp1605
a(F8.0
F-5.040440559387207
tp1606
a(F8.534374237060547
F-6.0
tp1607
a(F9.0
F-6.715104579925537
tp1608
a(F9.2192964553833
F-7.0
tp1609
a(F9.927452087402344
F-8.0
tp1610
a(F9.0
F-8.260189056396484
tp1611
a(F8.744848251342773
F-8.0
tp1612
a(F8.0
F-7.117074966430664
tp1613
a(F7.902826309204102
F-7.0
tp1614
a(F7.0
F-5.9970927238464355
tp1615
a(F7.002851486206055
F-6.0
tp1616
a(F6.1080169677734375
F-5.0
tp1617
a(F6.0
F-4.846909523010254
tp1618
a(F5.0
F-4.246100902557373
tp1619
a(F4.510045051574707
F-5.0
tp1620
a(F4.25395393371582
F-6.000000476837158
tp1621
a(F4.129125118255615
F-8.0
tp1622
a(F4.141390800476074
F-7.0
tp1623
a(F4.481250286102295
F-9.0
tp1624
a(F4.0
F-9.802693367004395
tp1625
a(F3.5372397899627686
F-9.0
tp1626
a(F3.3869786262512207
F-8.0
tp1627
a(F3.2535810470581055
F-7.0
tp1628
a(F3.121644973754883
F-6.000000476837158
tp1629
a(F3.000000238418579
F-5.083038330078125
tp1630
a(F2.986109733581543
F-5.0
tp1631
a(F2.0
F-3.968804121017456
tp1632
a(F2.1687490940093994
F-4.0
tp1633
a(F1.0
F-3.8090577125549316
tp1634
a(F0.0
F-3.690032958984375
tp1635
a(F-1.0
F-3.656845808029175
tp1636
a(F-1.6635420322418213
F-4.0
tp1637
a(F-2.0
F-4.3847479820251465
tp1638
a(F-2.3697919845581055
F-5.0
tp1639
a(F-2.8138887882232666
F-6.000000476837158
tp1640
a(F-3.0
F-6.5183916091918945
tp1641
a(F-3.0
F-7.134603500366211
tp1642
a(F-3.04854154586792
F-7.000000476837158
tp1643
a(F-2.66249942779541
F-8.0
tp1644
a(F-2.0
F-8.889481544494629
tp1645
a(F-1.7983558177947998
F-9.0
tp1646
a(F-2.0
F-9.974003791809082
tp1647
a(F-4.196313858032227
F-5.471200466156006
tp1648
a(F-6.5
F-9.0
tp1649
a(F-2.375000238418579
F-9.0
tp1650
a(F4.240624904632568
F-9.0
tp1651
a(F4.0
F-8.375
tp1652
a(F-7.0
F-7.5
tp1653
a(F-3.0
F-7.5673017501831055
tp1654
a(F-3.52427077293396
F-7.0
tp1655
a(F-4.0
F-6.375
tp1656
a(F4.0
F-6.375
tp1657
a(F9.0
F-6.857552528381348
tp1658
a(F-5.529465198516846
F-6.000000476837158
tp1659
a(F-4.0
F-5.625
tp1660
a(F4.0
F-5.375000476837158
tp1661
asS'face_ids'
p1662
(lp1663
(L141L
L237L
L486L
tp1664
a(L2L
L487L
L365L
tp1665
a(L364L
L112L
L214L
tp1666
a(L214L
L112L
L365L
tp1667
a(L214L
L36L
L219L
tp1668
a(L158L
L364L
L214L
tp1669
a(L158L
L219L
L363L
tp1670
a(L219L
L158L
L214L
tp1671
a(L219L
L491L
L363L
tp1672
a(L10L
L223L
L361L
tp1673
a(L223L
L10L
L491L
tp1674
a(L362L
L361L
L223L
tp1675
a(L223L
L491L
L116L
tp1676
a(L2L
L366L
L487L
tp1677
a(L487L
L366L
L215L
tp1678
a(L96L
L215L
L368L
tp1679
a(L487L
L215L
L96L
tp1680
a(L368L
L215L
L367L
tp1681
a(L366L
L178L
L215L
tp1682
a(L36L
L214L
L487L
tp1683
a(L180L
L367L
L215L
tp1684
a(L157L
L367L
L180L
tp1685
a(L180L
L215L
L178L
tp1686
a(L116L
L491L
L369L
tp1687
a(L369L
L219L
L36L
tp1688
a(L98L
L118L
L223L
tp1689
a(L98L
L223L
L370L
tp1690
a(L370L
L223L
L116L
tp1691
a(L371L
L121L
L229L
tp1692
a(L118L
L371L
L229L
tp1693
a(L118L
L362L
L223L
tp1694
a(L2L
L93L
L366L
tp1695
a(L190L
L497L
L121L
tp1696
a(L365L
L487L
L214L
tp1697
a(L36L
L487L
L96L
tp1698
a(L228L
L362L
L360L
tp1699
a(L182L
L216L
L488L
tp1700
a(L218L
L463L
L489L
tp1701
a(L216L
L379L
L488L
tp1702
a(L11L
L229L
L40L
tp1703
a(L40L
L229L
L42L
tp1704
a(L42L
L235L
L395L
tp1705
a(L71L
L395L
L235L
tp1706
a(L229L
L11L
L360L
tp1707
a(L121L
L497L
L229L
tp1708
a(L229L
L362L
L118L
tp1709
a(L235L
L243L
L103L
tp1710
a(L235L
L103L
L71L
tp1711
a(L243L
L104L
L103L
tp1712
a(L243L
L394L
L104L
tp1713
a(L243L
L235L
L236L
tp1714
a(L235L
L42L
L229L
tp1715
a(L360L
L362L
L229L
tp1716
a(L144L
L393L
L253L
tp1717
a(L393L
L394L
L243L
tp1718
a(L253L
L165L
L144L
tp1719
a(L243L
L244L
L393L
tp1720
a(L391L
L392L
L253L
tp1721
a(L281L
L390L
L81L
tp1722
a(L81L
L79L
L267L
tp1723
a(L253L
L392L
L165L
tp1724
a(L391L
L267L
L79L
tp1725
a(L236L
L235L
L497L
tp1726
a(L11L
L228L
L360L
tp1727
a(L235L
L229L
L497L
tp1728
a(L376L
L115L
L220L
tp1729
a(L378L
L220L
L115L
tp1730
a(L0L
L488L
L92L
tp1731
a(L34L
L379L
L216L
tp1732
a(L117L
L97L
L492L
tp1733
a(L216L
L184L
L220L
tp1734
a(L492L
L220L
L482L
tp1735
a(L220L
L378L
L216L
tp1736
a(L378L
L34L
L216L
tp1737
a(L220L
L492L
L376L
tp1738
a(L161L
L377L
L224L
tp1739
a(L375L
L224L
L494L
tp1740
a(L224L
L375L
L161L
tp1741
a(L494L
L230L
L374L
tp1742
a(L376L
L493L
L377L
tp1743
a(L99L
L493L
L481L
tp1744
a(L493L
L119L
L479L
tp1745
a(L479L
L494L
L493L
tp1746
a(L493L
L480L
L481L
tp1747
a(L376L
L492L
L493L
tp1748
a(L479L
L231L
L494L
tp1749
a(L0L
L137L
L485L
tp1750
a(L137L
L213L
L485L
tp1751
a(L217L
L488L
L0L
tp1752
a(L217L
L0L
L485L
tp1753
a(L217L
L61L
L179L
tp1754
a(L483L
L488L
L217L
tp1755
a(L213L
L1L
L485L
tp1756
a(L213L
L61L
L1L
tp1757
a(L61L
L217L
L485L
tp1758
a(L484L
L217L
L179L
tp1759
a(L61L
L485L
L1L
tp1760
a(L217L
L484L
L35L
tp1761
a(L216L
L6L
L184L
tp1762
a(L488L
L483L
L182L
tp1763
a(L492L
L482L
L117L
tp1764
a(L184L
L482L
L220L
tp1765
a(L182L
L6L
L216L
tp1766
a(L3L
L483L
L217L
tp1767
a(L35L
L3L
L217L
tp1768
a(L488L
L379L
L92L
tp1769
a(L38L
L494L
L374L
tp1770
a(L372L
L102L
L236L
tp1771
a(L102L
L486L
L236L
tp1772
a(L236L
L497L
L372L
tp1773
a(L140L
L230L
L498L
tp1774
a(L230L
L140L
L374L
tp1775
a(L230L
L494L
L231L
tp1776
a(L231L
L238L
L498L
tp1777
a(L141L
L164L
L237L
tp1778
a(L237L
L164L
L498L
tp1779
a(L236L
L486L
L237L
tp1780
a(L238L
L237L
L498L
tp1781
a(L66L
L494L
L38L
tp1782
a(L236L
L237L
L245L
tp1783
a(L244L
L245L
L253L
tp1784
a(L244L
L236L
L245L
tp1785
a(L253L
L245L
L254L
tp1786
a(L244L
L253L
L393L
tp1787
a(L281L
L267L
L268L
tp1788
a(L254L
L267L
L253L
tp1789
a(L268L
L267L
L254L
tp1790
a(L267L
L281L
L81L
tp1791
a(L245L
L246L
L254L
tp1792
a(L253L
L267L
L391L
tp1793
a(L255L
L254L
L246L
tp1794
a(L246L
L238L
L477L
tp1795
a(L255L
L246L
L247L
tp1796
a(L255L
L268L
L254L
tp1797
a(L268L
L269L
L282L
tp1798
a(L269L
L268L
L255L
tp1799
a(L282L
L269L
L283L
tp1800
a(L268L
L282L
L281L
tp1801
a(L255L
L256L
L269L
tp1802
a(L246L
L245L
L238L
tp1803
a(L237L
L238L
L245L
tp1804
a(L281L
L282L
L297L
tp1805
a(L231L
L192L
L238L
tp1806
a(L236L
L244L
L243L
tp1807
a(L192L
L231L
L478L
tp1808
a(L478L
L231L
L122L
tp1809
a(L476L
L246L
L477L
tp1810
a(L238L
L12L
L477L
tp1811
a(L12L
L238L
L192L
tp1812
a(L43L
L476L
L72L
tp1813
a(L476L
L43L
L247L
tp1814
a(L246L
L476L
L247L
tp1815
a(L256L
L247L
L198L
tp1816
a(L255L
L247L
L256L
tp1817
a(L270L
L256L
L257L
tp1818
a(L269L
L256L
L270L
tp1819
a(L283L
L270L
L284L
tp1820
a(L283L
L269L
L270L
tp1821
a(L271L
L284L
L270L
tp1822
a(L283L
L284L
L299L
tp1823
a(L72L
L475L
L247L
tp1824
a(L247L
L43L
L72L
tp1825
a(L256L
L198L
L18L
tp1826
a(L271L
L270L
L257L
tp1827
a(L474L
L257L
L18L
tp1828
a(L284L
L271L
L285L
tp1829
a(L285L
L271L
L272L
tp1830
a(L257L
L258L
L271L
tp1831
a(L18L
L257L
L256L
tp1832
a(L247L
L475L
L198L
tp1833
a(L284L
L285L
L300L
tp1834
a(L122L
L231L
L101L
tp1835
a(L101L
L231L
L479L
tp1836
a(L282L
L283L
L298L
tp1837
a(L390L
L281L
L51L
tp1838
a(L465L
L490L
L221L
tp1839
a(L203L
L24L
L384L
tp1840
a(L160L
L490L
L185L
tp1841
a(L347L
L384L
L383L
tp1842
a(L384L
L347L
L346L
tp1843
a(L346L
L203L
L384L
tp1844
a(L383L
L127L
L328L
tp1845
a(L210L
L28L
L346L
tp1846
a(L348L
L381L
L210L
tp1847
a(L346L
L28L
L382L
tp1848
a(L346L
L154L
L134L
tp1849
a(L347L
L154L
L346L
tp1850
a(L346L
L134L
L410L
tp1851
a(L348L
L410L
L89L
tp1852
a(L410L
L348L
L346L
tp1853
a(L381L
L348L
L29L
tp1854
a(L346L
L348L
L210L
tp1855
a(L382L
L203L
L346L
tp1856
a(L89L
L90L
L348L
tp1857
a(L127L
L149L
L328L
tp1858
a(L328L
L386L
L329L
tp1859
a(L386L
L385L
L329L
tp1860
a(L386L
L328L
L149L
tp1861
a(L385L
L169L
L23L
tp1862
a(L148L
L168L
L311L
tp1863
a(L23L
L387L
L311L
tp1864
a(L311L
L387L
L148L
tp1865
a(L23L
L311L
L385L
tp1866
a(L329L
L311L
L312L
tp1867
a(L329L
L385L
L311L
tp1868
a(L328L
L173L
L153L
tp1869
a(L153L
L347L
L328L
tp1870
a(L347L
L153L
L411L
tp1871
a(L411L
L412L
L347L
tp1872
a(L347L
L412L
L154L
tp1873
a(L329L
L152L
L128L
tp1874
a(L330L
L152L
L329L
tp1875
a(L329L
L128L
L413L
tp1876
a(L329L
L413L
L173L
tp1877
a(L329L
L173L
L328L
tp1878
a(L311L
L168L
L312L
tp1879
a(L328L
L347L
L383L
tp1880
a(L380L
L211L
L408L
tp1881
a(L349L
L30L
L407L
tp1882
a(L380L
L60L
L30L
tp1883
a(L369L
L491L
L219L
tp1884
a(L408L
L211L
L348L
tp1885
a(L409L
L59L
L380L
tp1886
a(L60L
L407L
L30L
tp1887
a(L59L
L60L
L380L
tp1888
a(L409L
L380L
L408L
tp1889
a(L29L
L348L
L211L
tp1890
a(L349L
L407L
L175L
tp1891
a(L350L
L175L
L405L
tp1892
a(L350L
L349L
L175L
tp1893
a(L351L
L350L
L406L
tp1894
a(L354L
L353L
L351L
tp1895
a(L354L
L32L
L353L
tp1896
a(L492L
L480L
L493L
tp1897
a(L405L
L406L
L350L
tp1898
a(L352L
L354L
L351L
tp1899
a(L354L
L352L
L176L
tp1900
a(L358L
L354L
L355L
tp1901
a(L354L
L358L
L32L
tp1902
a(L406L
L404L
L352L
tp1903
a(L406L
L352L
L351L
tp1904
a(L97L
L480L
L492L
tp1905
a(L363L
L491L
L10L
tp1906
a(L355L
L354L
L155L
tp1907
a(L404L
L176L
L352L
tp1908
a(L402L
L403L
L355L
tp1909
a(L355L
L403L
L359L
tp1910
a(L402L
L355L
L155L
tp1911
a(L403L
L31L
L359L
tp1912
a(L31L
L403L
L212L
tp1913
a(L31L
L212L
L396L
tp1914
a(L359L
L358L
L355L
tp1915
a(L356L
L400L
L401L
tp1916
a(L401L
L400L
L396L
tp1917
a(L356L
L401L
L212L
tp1918
a(L136L
L396L
L400L
tp1919
a(L400L
L177L
L136L
tp1920
a(L156L
L357L
L400L
tp1921
a(L401L
L396L
L212L
tp1922
a(L155L
L354L
L176L
tp1923
a(L90L
L408L
L348L
tp1924
a(L312L
L388L
L126L
tp1925
a(L20L
L388L
L167L
tp1926
a(L167L
L388L
L312L
tp1927
a(L312L
L330L
L329L
tp1928
a(L52L
L296L
L389L
tp1929
a(L296L
L52L
L51L
tp1930
a(L389L
L296L
L147L
tp1931
a(L147L
L296L
L126L
tp1932
a(L147L
L126L
L389L
tp1933
a(L126L
L296L
L313L
tp1934
a(L126L
L313L
L312L
tp1935
a(L314L
L331L
L313L
tp1936
a(L281L
L296L
L51L
tp1937
a(L312L
L313L
L331L
tp1938
a(L330L
L331L
L53L
tp1939
a(L331L
L330L
L312L
tp1940
a(L330L
L53L
L202L
tp1941
a(L202L
L414L
L330L
tp1942
a(L53L
L331L
L415L
tp1943
a(L414L
L152L
L330L
tp1944
a(L151L
L415L
L331L
tp1945
a(L205L
L151L
L331L
tp1946
a(L332L
L172L
L205L
tp1947
a(L205L
L331L
L332L
tp1948
a(L172L
L332L
L27L
tp1949
a(L313L
L296L
L297L
tp1950
a(L297L
L298L
L314L
tp1951
a(L296L
L281L
L297L
tp1952
a(L314L
L298L
L315L
tp1953
a(L297L
L314L
L313L
tp1954
a(L332L
L315L
L333L
tp1955
a(L315L
L332L
L314L
tp1956
a(L333L
L315L
L316L
tp1957
a(L332L
L333L
L416L
tp1958
a(L298L
L299L
L315L
tp1959
a(L314L
L332L
L331L
tp1960
a(L299L
L300L
L316L
tp1961
a(L298L
L283L
L299L
tp1962
a(L316L
L300L
L317L
tp1963
a(L299L
L316L
L315L
tp1964
a(L334L
L317L
L335L
tp1965
a(L317L
L334L
L316L
tp1966
a(L335L
L317L
L318L
tp1967
a(L334L
L335L
L88L
tp1968
a(L300L
L301L
L317L
tp1969
a(L316L
L334L
L333L
tp1970
a(L282L
L298L
L297L
tp1971
a(L333L
L334L
L58L
tp1972
a(L333L
L130L
L86L
tp1973
a(L86L
L416L
L333L
tp1974
a(L130L
L333L
L417L
tp1975
a(L334L
L109L
L58L
tp1976
a(L417L
L333L
L58L
tp1977
a(L133L
L88L
L335L
tp1978
a(L334L
L88L
L418L
tp1979
a(L334L
L418L
L109L
tp1980
a(L133L
L335L
L419L
tp1981
a(L335L
L87L
L419L
tp1982
a(L332L
L416L
L27L
tp1983
a(L284L
L300L
L299L
tp1984
a(L357L
L156L
L399L
tp1985
a(L357L
L399L
L110L
tp1986
a(L397L
L400L
L357L
tp1987
a(L135L
L397L
L357L
tp1988
a(L398L
L357L
L110L
tp1989
a(L177L
L400L
L397L
tp1990
a(L111L
L397L
L135L
tp1991
a(L135L
L357L
L398L
tp1992
a(L224L
L377L
L493L
tp1993
a(L119L
L493L
L99L
tp1994
a(L167L
L312L
L168L
tp1995
a(L285L
L286L
L300L
tp1996
a(L181L
L218L
L489L
tp1997
a(L464L
L114L
L218L
tp1998
a(L490L
L464L
L218L
tp1999
a(L65L
L64L
L221L
tp2000
a(L225L
L466L
L65L
tp2001
a(L465L
L221L
L64L
tp2002
a(L113L
L218L
L114L
tp2003
a(L463L
L138L
L489L
tp2004
a(L95L
L463L
L62L
tp2005
a(L62L
L463L
L218L
tp2006
a(L160L
L221L
L490L
tp2007
a(L463L
L91L
L138L
tp2008
a(L94L
L33L
L489L
tp2009
a(L33L
L462L
L489L
tp2010
a(L33L
L94L
L63L
tp2011
a(L138L
L94L
L489L
tp2012
a(L489L
L462L
L181L
tp2013
a(L465L
L464L
L490L
tp2014
a(L181L
L490L
L218L
tp2015
a(L221L
L160L
L460L
tp2016
a(L225L
L460L
L461L
tp2017
a(L460L
L225L
L221L
tp2018
a(L225L
L461L
L188L
tp2019
a(L225L
L65L
L221L
tp2020
a(L495L
L225L
L188L
tp2021
a(L181L
L185L
L490L
tp2022
a(L495L
L188L
L189L
tp2023
a(L113L
L62L
L218L
tp2024
a(L495L
L466L
L225L
tp2025
a(L196L
L470L
L260L
tp2026
a(L143L
L196L
L260L
tp2027
a(L472L
L143L
L259L
tp2028
a(L74L
L473L
L258L
tp2029
a(L272L
L271L
L258L
tp2030
a(L258L
L19L
L74L
tp2031
a(L272L
L258L
L259L
tp2032
a(L257L
L19L
L258L
tp2033
a(L473L
L197L
L258L
tp2034
a(L272L
L286L
L285L
tp2035
a(L197L
L46L
L259L
tp2036
a(L46L
L472L
L259L
tp2037
a(L259L
L273L
L272L
tp2038
a(L273L
L260L
L274L
tp2039
a(L260L
L273L
L259L
tp2040
a(L274L
L260L
L261L
tp2041
a(L273L
L274L
L288L
tp2042
a(L143L
L260L
L259L
tp2043
a(L259L
L258L
L197L
tp2044
a(L272L
L273L
L287L
tp2045
a(L470L
L471L
L260L
tp2046
a(L468L
L13L
L239L
tp2047
a(L469L
L14L
L239L
tp2048
a(L239L
L14L
L468L
tp2049
a(L469L
L239L
L16L
tp2050
a(L239L
L13L
L240L
tp2051
a(L499L
L467L
L232L
tp2052
a(L495L
L467L
L466L
tp2053
a(L232L
L495L
L459L
tp2054
a(L459L
L68L
L499L
tp2055
a(L459L
L499L
L232L
tp2056
a(L13L
L467L
L499L
tp2057
a(L240L
L499L
L69L
tp2058
a(L123L
L16L
L248L
tp2059
a(L471L
L73L
L248L
tp2060
a(L260L
L471L
L261L
tp2061
a(L471L
L248L
L261L
tp2062
a(L261L
L248L
L249L
tp2063
a(L261L
L275L
L274L
tp2064
a(L239L
L248L
L16L
tp2065
a(L249L
L240L
L458L
tp2066
a(L458L
L240L
L69L
tp2067
a(L15L
L193L
L457L
tp2068
a(L249L
L458L
L193L
tp2069
a(L261L
L262L
L275L
tp2070
a(L261L
L249L
L262L
tp2071
a(L15L
L250L
L193L
tp2072
a(L249L
L250L
L262L
tp2073
a(L250L
L249L
L193L
tp2074
a(L276L
L275L
L262L
tp2075
a(L249L
L248L
L240L
tp2076
a(L239L
L240L
L248L
tp2077
a(L123L
L248L
L73L
tp2078
a(L274L
L275L
L289L
tp2079
a(L227L
L226L
L451L
tp2080
a(L451L
L186L
L227L
tp2081
a(L233L
L454L
L453L
tp2082
a(L444L
L453L
L454L
tp2083
a(L191L
L233L
L453L
tp2084
a(L162L
L452L
L226L
tp2085
a(L226L
L452L
L451L
tp2086
a(L162L
L226L
L234L
tp2087
a(L162L
L234L
L139L
tp2088
a(L234L
L226L
L445L
tp2089
a(L444L
L454L
L234L
tp2090
a(L139L
L234L
L454L
tp2091
a(L445L
L226L
L446L
tp2092
a(L445L
L67L
L234L
tp2093
a(L186L
L9L
L222L
tp2094
a(L159L
L222L
L449L
tp2095
a(L449L
L222L
L450L
tp2096
a(L5L
L448L
L159L
tp2097
a(L7L
L448L
L5L
tp2098
a(L5L
L4L
L7L
tp2099
a(L5L
L183L
L4L
tp2100
a(L448L
L7L
L8L
tp2101
a(L227L
L447L
L120L
tp2102
a(L447L
L227L
L222L
tp2103
a(L120L
L100L
L496L
tp2104
a(L227L
L186L
L222L
tp2105
a(L496L
L227L
L120L
tp2106
a(L496L
L226L
L227L
tp2107
a(L37L
L187L
L222L
tp2108
a(L447L
L222L
L187L
tp2109
a(L222L
L448L
L37L
tp2110
a(L222L
L159L
L448L
tp2111
a(L450L
L222L
L9L
tp2112
a(L251L
L142L
L194L
tp2113
a(L194L
L456L
L251L
tp2114
a(L241L
L70L
L163L
tp2115
a(L241L
L163L
L191L
tp2116
a(L455L
L41L
L241L
tp2117
a(L241L
L41L
L70L
tp2118
a(L455L
L241L
L456L
tp2119
a(L453L
L241L
L191L
tp2120
a(L241L
L252L
L456L
tp2121
a(L250L
L195L
L17L
tp2122
a(L195L
L250L
L457L
tp2123
a(L17L
L195L
L142L
tp2124
a(L251L
L250L
L17L
tp2125
a(L264L
L263L
L250L
tp2126
a(L250L
L251L
L264L
tp2127
a(L251L
L252L
L264L
tp2128
a(L278L
L263L
L264L
tp2129
a(L142L
L251L
L17L
tp2130
a(L250L
L263L
L262L
tp2131
a(L252L
L265L
L264L
tp2132
a(L442L
L124L
L252L
tp2133
a(L265L
L124L
L125L
tp2134
a(L265L
L441L
L78L
tp2135
a(L441L
L265L
L125L
tp2136
a(L264L
L265L
L279L
tp2137
a(L252L
L124L
L265L
tp2138
a(L456L
L252L
L251L
tp2139
a(L277L
L262L
L263L
tp2140
a(L252L
L241L
L44L
tp2141
a(L457L
L250L
L15L
tp2142
a(L443L
L444L
L242L
tp2143
a(L443L
L44L
L241L
tp2144
a(L45L
L442L
L252L
tp2145
a(L44L
L45L
L252L
tp2146
a(L443L
L241L
L444L
tp2147
a(L444L
L234L
L39L
tp2148
a(L453L
L444L
L241L
tp2149
a(L47L
L75L
L437L
tp2150
a(L145L
L280L
L105L
tp2151
a(L437L
L145L
L47L
tp2152
a(L437L
L280L
L145L
tp2153
a(L75L
L266L
L437L
tp2154
a(L437L
L76L
L280L
tp2155
a(L76L
L49L
L280L
tp2156
a(L437L
L48L
L76L
tp2157
a(L437L
L266L
L48L
tp2158
a(L234L
L67L
L39L
tp2159
a(L280L
L49L
L77L
tp2160
a(L265L
L78L
L279L
tp2161
a(L286L
L287L
L301L
tp2162
a(L286L
L272L
L287L
tp2163
a(L301L
L287L
L302L
tp2164
a(L317L
L301L
L318L
tp2165
a(L336L
L318L
L319L
tp2166
a(L302L
L318L
L301L
tp2167
a(L319L
L318L
L302L
tp2168
a(L336L
L87L
L335L
tp2169
a(L287L
L288L
L302L
tp2170
a(L335L
L318L
L336L
tp2171
a(L288L
L289L
L303L
tp2172
a(L288L
L274L
L289L
tp2173
a(L320L
L303L
L304L
tp2174
a(L303L
L319L
L302L
tp2175
a(L319L
L320L
L337L
tp2176
a(L320L
L319L
L303L
tp2177
a(L337L
L320L
L338L
tp2178
a(L319L
L337L
L336L
tp2179
a(L338L
L320L
L321L
tp2180
a(L303L
L302L
L288L
tp2181
a(L273L
L288L
L287L
tp2182
a(L336L
L337L
L57L
tp2183
a(L337L
L421L
L85L
tp2184
a(L337L
L85L
L57L
tp2185
a(L336L
L132L
L87L
tp2186
a(L57L
L420L
L336L
tp2187
a(L132L
L336L
L420L
tp2188
a(L54L
L339L
L108L
tp2189
a(L338L
L339L
L54L
tp2190
a(L338L
L54L
L422L
tp2191
a(L338L
L208L
L171L
tp2192
a(L208L
L338L
L422L
tp2193
a(L171L
L421L
L337L
tp2194
a(L338L
L171L
L337L
tp2195
a(L304L
L303L
L289L
tp2196
a(L289L
L290L
L304L
tp2197
a(L290L
L289L
L276L
tp2198
a(L290L
L276L
L277L
tp2199
a(L304L
L290L
L305L
tp2200
a(L321L
L305L
L322L
tp2201
a(L305L
L321L
L304L
tp2202
a(L322L
L305L
L306L
tp2203
a(L321L
L322L
L340L
tp2204
a(L290L
L291L
L305L
tp2205
a(L304L
L321L
L320L
tp2206
a(L277L
L278L
L291L
tp2207
a(L278L
L277L
L263L
tp2208
a(L291L
L278L
L292L
tp2209
a(L277L
L291L
L290L
tp2210
a(L323L
L306L
L307L
tp2211
a(L292L
L306L
L291L
tp2212
a(L324L
L342L
L341L
tp2213
a(L306L
L323L
L322L
tp2214
a(L278L
L279L
L292L
tp2215
a(L291L
L306L
L305L
tp2216
a(L276L
L262L
L277L
tp2217
a(L322L
L323L
L341L
tp2218
a(L423L
L339L
L207L
tp2219
a(L340L
L339L
L321L
tp2220
a(L207L
L339L
L340L
tp2221
a(L339L
L423L
L108L
tp2222
a(L340L
L56L
L207L
tp2223
a(L56L
L340L
L424L
tp2224
a(L340L
L206L
L424L
tp2225
a(L324L
L341L
L323L
tp2226
a(L341L
L342L
L84L
tp2227
a(L341L
L84L
L425L
tp2228
a(L341L
L55L
L206L
tp2229
a(L55L
L341L
L425L
tp2230
a(L341L
L206L
L340L
tp2231
a(L340L
L322L
L341L
tp2232
a(L321L
L339L
L338L
tp2233
a(L289L
L275L
L276L
tp2234
a(L375L
L494L
L66L
tp2235
a(L467L
L495L
L232L
tp2236
a(L459L
L495L
L189L
tp2237
a(L292L
L307L
L306L
tp2238
a(L286L
L301L
L300L
tp2239
a(L279L
L440L
L106L
tp2240
a(L440L
L279L
L78L
tp2241
a(L106L
L440L
L50L
tp2242
a(L279L
L106L
L50L
tp2243
a(L293L
L50L
L80L
tp2244
a(L50L
L293L
L279L
tp2245
a(L293L
L80L
L82L
tp2246
a(L293L
L307L
L292L
tp2247
a(L146L
L438L
L166L
tp2248
a(L166L
L438L
L294L
tp2249
a(L82L
L146L
L294L
tp2250
a(L294L
L146L
L166L
tp2251
a(L82L
L294L
L293L
tp2252
a(L438L
L295L
L294L
tp2253
a(L293L
L294L
L308L
tp2254
a(L307L
L324L
L323L
tp2255
a(L325L
L342L
L324L
tp2256
a(L343L
L204L
L342L
tp2257
a(L107L
L84L
L342L
tp2258
a(L342L
L204L
L426L
tp2259
a(L25L
L204L
L343L
tp2260
a(L324L
L307L
L308L
tp2261
a(L342L
L426L
L107L
tp2262
a(L308L
L325L
L324L
tp2263
a(L325L
L308L
L309L
tp2264
a(L325L
L326L
L343L
tp2265
a(L325L
L343L
L342L
tp2266
a(L150L
L427L
L343L
tp2267
a(L150L
L343L
L344L
tp2268
a(L344L
L343L
L326L
tp2269
a(L343L
L427L
L25L
tp2270
a(L307L
L293L
L308L
tp2271
a(L309L
L308L
L294L
tp2272
a(L293L
L292L
L279L
tp2273
a(L280L
L295L
L438L
tp2274
a(L280L
L439L
L105L
tp2275
a(L200L
L310L
L295L
tp2276
a(L295L
L309L
L294L
tp2277
a(L309L
L310L
L327L
tp2278
a(L310L
L309L
L295L
tp2279
a(L200L
L434L
L310L
tp2280
a(L310L
L434L
L21L
tp2281
a(L295L
L280L
L436L
tp2282
a(L438L
L439L
L280L
tp2283
a(L199L
L295L
L436L
tp2284
a(L200L
L295L
L199L
tp2285
a(L436L
L280L
L435L
tp2286
a(L280L
L77L
L435L
tp2287
a(L345L
L326L
L327L
tp2288
a(L326L
L309L
L327L
tp2289
a(L83L
L327L
L433L
tp2290
a(L345L
L327L
L83L
tp2291
a(L428L
L344L
L170L
tp2292
a(L345L
L344L
L326L
tp2293
a(L345L
L26L
L344L
tp2294
a(L344L
L428L
L201L
tp2295
a(L83L
L432L
L345L
tp2296
a(L201L
L150L
L344L
tp2297
a(L22L
L433L
L327L
tp2298
a(L310L
L21L
L22L
tp2299
a(L429L
L345L
L432L
tp2300
a(L327L
L310L
L22L
tp2301
a(L309L
L326L
L325L
tp2302
a(L100L
L446L
L496L
tp2303
a(L446L
L226L
L496L
tp2304
a(L170L
L344L
L26L
tp2305
a(L26L
L345L
L429L
tp2306
a(L432L
L129L
L429L
tp2307
a(L174L
L131L
L430L
tp2308
a(L174L
L129L
L432L
tp2309
a(L430L
L131L
L431L
tp2310
a(L431L
L209L
L430L
tp2311
a(L432L
L131L
L174L
tp2312
a(L231L
L498L
L230L
tp2313
a(L497L
L373L
L372L
tp2314
a(L190L
L373L
L497L
tp2315
a(L140L
L498L
L164L
tp2316
a(L13L
L499L
L240L
tp2317
a(L69L
L499L
L68L
tp2318
a(L278L
L264L
L279L
tp2319
a(L19L
L257L
L474L
tp2320
a(L224L
L493L
L494L
tp2321
as.